target datalayout = "e-m:e-p270:32:32-p271:32:32-p272:64:64-i64:64-i128:128-f80:128-n8:16:32:64-S128"
target triple = "x86_64-pc-linux-gnu"

%struct.RepeatInfo = type { i8, i32, i32, i32, i32, i32, i32, [2 x i32], i32, i32, i32, i32, i32 }
%struct.RepeatRangeControl = type { i64, i8 }
%struct.unaligned = type { i16 }

; Function Attrs: alwaysinline nounwind uwtable
define internal zeroext i16 @unaligned_load_u16(ptr noundef %0) #2 {
  %2 = alloca ptr, align 8
  %3 = alloca ptr, align 8
  store ptr %0, ptr %2, align 8
  call void @llvm.lifetime.start.p0(i64 8, ptr %3) #7
  %4 = load ptr, ptr %2, align 8
  store ptr %4, ptr %3, align 8
  %5 = load ptr, ptr %3, align 8
  %6 = getelementptr inbounds nuw %struct.unaligned, ptr %5, i32 0, i32 0
  %7 = load i16, ptr %6, align 1
  call void @llvm.lifetime.end.p0(i64 8, ptr %3) #7
  ret i16 %7
}

; Function Attrs: nounwind uwtable
define hidden i64 @repeatNextMatchRange(ptr noundef %0, ptr noundef %1, ptr noundef %2, i64 noundef %3) #0 {
  %5 = alloca i64, align 8
  %6 = alloca ptr, align 8
  %7 = alloca ptr, align 8
  %8 = alloca ptr, align 8
  %9 = alloca i64, align 8
  %10 = alloca ptr, align 8
  %11 = alloca ptr, align 8
  %12 = alloca i32, align 4
  %13 = alloca i32, align 4
  %14 = alloca i64, align 8
  %15 = alloca i64, align 8
  store ptr %0, ptr %6, align 8
  store ptr %1, ptr %7, align 8
  store ptr %2, ptr %8, align 8
  store i64 %3, ptr %9, align 8
  call void @llvm.lifetime.start.p0(i64 8, ptr %10) #7
  %16 = load ptr, ptr %7, align 8
  store ptr %16, ptr %10, align 8
  call void @llvm.lifetime.start.p0(i64 8, ptr %11) #7
  %17 = load ptr, ptr %8, align 8
  store ptr %17, ptr %11, align 8
  call void @llvm.lifetime.start.p0(i64 4, ptr %12) #7
  store i32 0, ptr %12, align 4
  br label %18

18:                                               ; preds = %64, %4
  %19 = load i32, ptr %12, align 4
  %20 = load ptr, ptr %10, align 8
  %21 = getelementptr inbounds nuw %struct.RepeatRangeControl, ptr %20, i32 0, i32 1
  %22 = load i8, ptr %21, align 8
  %23 = zext i8 %22 to i32
  %24 = icmp ult i32 %19, %23
  br i1 %24, label %26, label %25

25:                                               ; preds = %18
  store i32 2, ptr %13, align 4
  br label %67

26:                                               ; preds = %18
  call void @llvm.lifetime.start.p0(i64 8, ptr %14) #7
  %27 = load ptr, ptr %10, align 8
  %28 = getelementptr inbounds nuw %struct.RepeatRangeControl, ptr %27, i32 0, i32 0
  %29 = load i64, ptr %28, align 8
  %30 = load ptr, ptr %11, align 8
  %31 = load i32, ptr %12, align 4
  %32 = zext i32 %31 to i64
  %33 = getelementptr inbounds nuw i16, ptr %30, i64 %32
  %34 = call zeroext i16 @unaligned_load_u16(ptr noundef %33)
  %35 = zext i16 %34 to i64
  %36 = add i64 %29, %35
  store i64 %36, ptr %14, align 8
  call void @llvm.lifetime.start.p0(i64 8, ptr %15) #7
  %37 = load i64, ptr %14, align 8
  %38 = load ptr, ptr %6, align 8
  %39 = getelementptr inbounds nuw %struct.RepeatInfo, ptr %38, i32 0, i32 1
  %40 = load i32, ptr %39, align 4
  %41 = zext i32 %40 to i64
  %42 = add i64 %37, %41
  store i64 %42, ptr %15, align 8
  %43 = load i64, ptr %9, align 8
  %44 = load i64, ptr %15, align 8
  %45 = icmp ult i64 %43, %44
  br i1 %45, label %46, label %48

46:                                               ; preds = %26
  %47 = load i64, ptr %15, align 8
  store i64 %47, ptr %5, align 8
  store i32 1, ptr %13, align 4
  br label %61

48:                                               ; preds = %26
  %49 = load i64, ptr %9, align 8
  %50 = load i64, ptr %14, align 8
  %51 = load ptr, ptr %6, align 8
  %52 = getelementptr inbounds nuw %struct.RepeatInfo, ptr %51, i32 0, i32 2
  %53 = load i32, ptr %52, align 4
  %54 = zext i32 %53 to i64
  %55 = add i64 %50, %54
  %56 = icmp ult i64 %49, %55
  br i1 %56, label %57, label %60

57:                                               ; preds = %48
  %58 = load i64, ptr %9, align 8
  %59 = add i64 %58, 1
  store i64 %59, ptr %5, align 8
  store i32 1, ptr %13, align 4
  br label %61

60:                                               ; preds = %48
  store i32 0, ptr %13, align 4
  br label %61

61:                                               ; preds = %60, %57, %46
  call void @llvm.lifetime.end.p0(i64 8, ptr %15) #7
  call void @llvm.lifetime.end.p0(i64 8, ptr %14) #7
  %62 = load i32, ptr %13, align 4
  switch i32 %62, label %67 [
    i32 0, label %63
  ]

63:                                               ; preds = %61
  br label %64

64:                                               ; preds = %63
  %65 = load i32, ptr %12, align 4
  %66 = add i32 %65, 1
  store i32 %66, ptr %12, align 4
  br label %18

67:                                               ; preds = %61, %25
  call void @llvm.lifetime.end.p0(i64 4, ptr %12) #7
  %68 = load i32, ptr %13, align 4
  switch i32 %68, label %70 [
    i32 2, label %69
  ]

69:                                               ; preds = %67
  store i64 0, ptr %5, align 8
  store i32 1, ptr %13, align 4
  br label %70

70:                                               ; preds = %69, %67
  call void @llvm.lifetime.end.p0(i64 8, ptr %11) #7
  call void @llvm.lifetime.end.p0(i64 8, ptr %10) #7
  %71 = load i64, ptr %5, align 8
  ret i64 %71
}